0000000: 0061 736d                                 ; WASM_BINARY_MAGIC
0000004: 0100 0000                                 ; WASM_BINARY_VERSION
; section "Type" (1)
0000008: 01                                        ; section code
0000009: 00                                        ; section size (guess)
000000a: 02                                        ; num types
; func type 0
000000b: 60                                        ; func
000000c: 01                                        ; num params
000000d: 7f                                        ; i32
000000e: 00                                        ; num results
; func type 1
000000f: 60                                        ; func
0000010: 00                                        ; num params
0000011: 00                                        ; num results
0000009: 08                                        ; FIXUP section size
; section "Import" (2)
0000012: 02                                        ; section code
0000013: 00                                        ; section size (guess)
0000014: 01                                        ; num imports
; import header 0
0000015: 07                                        ; string length
0000016: 636f 6e73 6f6c 65                        console  ; import module name
000001d: 03                                        ; string length
000001e: 6c6f 67                                  log  ; import field name
0000021: 00                                        ; import kind
0000022: 00                                        ; import signature index
0000013: 0f                                        ; FIXUP section size
; section "Function" (3)
0000023: 03                                        ; section code
0000024: 00                                        ; section size (guess)
0000025: 01                                        ; num functions
0000026: 01                                        ; function 0 signature index
0000024: 02                                        ; FIXUP section size
; section "Global" (6)
0000027: 06                                        ; section code
0000028: 00                                        ; section size (guess)
0000029: 01                                        ; num globals
000002a: 7f                                        ; i32
000002b: 01                                        ; global mutability
000002c: 41                                        ; i32.const
000002d: 00                                        ; i32 literal
000002e: 0b                                        ; end
0000028: 06                                        ; FIXUP section size
; section "Start" (8)
000002f: 08                                        ; section code
0000030: 00                                        ; section size (guess)
0000031: 01                                        ; start func index
0000030: 01                                        ; FIXUP section size
; section "Code" (10)
0000032: 0a                                        ; section code
0000033: 00                                        ; section size (guess)
0000034: 01                                        ; num functions
; function body 0
0000035: 00                                        ; func body size (guess)
0000036: 00                                        ; local decl count
0000037: 03                                        ; loop
0000038: 40                                        ; void
0000039: 23                                        ; global.get
000003a: 00                                        ; global index
000003b: 41                                        ; i32.const
000003c: 01                                        ; i32 literal
000003d: 6a                                        ; i32.add
000003e: 24                                        ; global.set
000003f: 00                                        ; global index
0000040: 23                                        ; global.get
0000041: 00                                        ; global index
0000042: 10                                        ; call
0000043: 00                                        ; function index
0000044: 23                                        ; global.get
0000045: 00                                        ; global index
0000046: 41                                        ; i32.const
0000047: 0a                                        ; i32 literal
0000048: 48                                        ; i32.lt_s
0000049: 0d                                        ; br_if
000004a: 00                                        ; break depth
000004b: 0b                                        ; end
000004c: 0b                                        ; end
0000035: 17                                        ; FIXUP func body size
0000033: 19                                        ; FIXUP section size
