0000000: 0061 736d                                 ; WASM_BINARY_MAGIC
0000004: 0100 0000                                 ; WASM_BINARY_VERSION
; section "Type" (1)
0000008: 01                                        ; section code
0000009: 00                                        ; section size (guess)
000000a: 02                                        ; num types
; func type 0
000000b: 60                                        ; func
000000c: 00                                        ; num params
000000d: 01                                        ; num results
000000e: 7f                                        ; i32
; func type 1
000000f: 60                                        ; func
0000010: 00                                        ; num params
0000011: 00                                        ; num results
0000009: 08                                        ; FIXUP section size
; section "Function" (3)
0000012: 03                                        ; section code
0000013: 00                                        ; section size (guess)
0000014: 02                                        ; num functions
0000015: 00                                        ; function 0 signature index
0000016: 01                                        ; function 1 signature index
0000013: 03                                        ; FIXUP section size
; section "Global" (6)
0000017: 06                                        ; section code
0000018: 00                                        ; section size (guess)
0000019: 01                                        ; num globals
000001a: 7f                                        ; i32
000001b: 01                                        ; global mutability
000001c: 41                                        ; i32.const
000001d: 00                                        ; i32 literal
000001e: 0b                                        ; end
0000018: 06                                        ; FIXUP section size
; section "Export" (7)
000001f: 07                                        ; section code
0000020: 00                                        ; section size (guess)
0000021: 01                                        ; num exports
0000022: 06                                        ; string length
0000023: 7361 6d70 6c65                           sample  ; export name
0000029: 00                                        ; export kind
000002a: 00                                        ; export func index
0000020: 0a                                        ; FIXUP section size
; section "Start" (8)
000002b: 08                                        ; section code
000002c: 00                                        ; section size (guess)
000002d: 01                                        ; start func index
000002c: 01                                        ; FIXUP section size
; section "Code" (10)
000002e: 0a                                        ; section code
000002f: 00                                        ; section size (guess)
0000030: 02                                        ; num functions
; function body 0
0000031: 00                                        ; func body size (guess)
0000032: 00                                        ; local decl count
0000033: 03                                        ; loop
0000034: 40                                        ; void
0000035: 23                                        ; global.get
0000036: 00                                        ; global index
0000037: 41                                        ; i32.const
0000038: 01                                        ; i32 literal
0000039: 6a                                        ; i32.add
000003a: 24                                        ; global.set
000003b: 00                                        ; global index
000003c: 23                                        ; global.get
000003d: 00                                        ; global index
000003e: 41                                        ; i32.const
000003f: 0a                                        ; i32 literal
0000040: 48                                        ; i32.lt_s
0000041: 0d                                        ; br_if
0000042: 00                                        ; break depth
0000043: 0b                                        ; end
0000044: 23                                        ; global.get
0000045: 00                                        ; global index
0000046: 0b                                        ; end
0000031: 15                                        ; FIXUP func body size
; function body 1
0000047: 00                                        ; func body size (guess)
0000048: 00                                        ; local decl count
0000049: 41                                        ; i32.const
000004a: 01                                        ; i32 literal
000004b: 24                                        ; global.set
000004c: 00                                        ; global index
000004d: 0b                                        ; end
0000047: 06                                        ; FIXUP func body size
000002f: 1e                                        ; FIXUP section size
; section "name"
000004e: 00                                        ; section code
000004f: 00                                        ; section size (guess)
0000050: 04                                        ; string length
0000051: 6e61 6d65                                name  ; custom section name
0000055: 01                                        ; name subsection type
0000056: 00                                        ; subsection size (guess)
0000057: 02                                        ; num names
0000058: 00                                        ; elem index
0000059: 06                                        ; string length
000005a: 7361 6d70 6c65                           sample  ; elem name 0
0000060: 01                                        ; elem index
0000061: 03                                        ; string length
0000062: 666f 6f                                  foo  ; elem name 1
0000056: 0e                                        ; FIXUP subsection size
0000065: 02                                        ; local name type
0000066: 00                                        ; subsection size (guess)
0000067: 02                                        ; num functions
0000068: 00                                        ; function index
0000069: 00                                        ; num locals
000006a: 01                                        ; function index
000006b: 00                                        ; num locals
0000066: 05                                        ; FIXUP subsection size
000006c: 07                                        ; name subsection type
000006d: 00                                        ; subsection size (guess)
000006e: 01                                        ; num names
000006f: 00                                        ; elem index
0000070: 01                                        ; string length
0000071: 69                                       i  ; elem name 0
000006d: 04                                        ; FIXUP subsection size
000004f: 22                                        ; FIXUP section size