0000000: 0061 736d                                 ; WASM_BINARY_MAGIC
0000004: 0100 0000                                 ; WASM_BINARY_VERSION
; section "Type" (1)
0000008: 01                                        ; section code
0000009: 00                                        ; section size (guess)
000000a: 01                                        ; num types
; func type 0
000000b: 60                                        ; func
000000c: 01                                        ; num params
000000d: 7f                                        ; i32
000000e: 01                                        ; num results
000000f: 7f                                        ; i32
0000009: 06                                        ; FIXUP section size
; section "Function" (3)
0000010: 03                                        ; section code
0000011: 00                                        ; section size (guess)
0000012: 01                                        ; num functions
0000013: 00                                        ; function 0 signature index
0000011: 02                                        ; FIXUP section size
; section "Memory" (5)
0000014: 05                                        ; section code
0000015: 00                                        ; section size (guess)
0000016: 01                                        ; num memories
; memory 0
0000017: 00                                        ; limits: flags
0000018: 00                                        ; limits: initial
0000015: 03                                        ; FIXUP section size
; section "Export" (7)
0000019: 07                                        ; section code
000001a: 00                                        ; section size (guess)
000001b: 02                                        ; num exports
000001c: 06                                        ; string length
000001d: 6d65 6d6f 7279                           memory  ; export name
0000023: 02                                        ; export kind
0000024: 00                                        ; export memory index
0000025: 03                                        ; string length
0000026: 6669 62                                  fib  ; export name
0000029: 00                                        ; export kind
000002a: 00                                        ; export func index
000001a: 10                                        ; FIXUP section size
; section "Code" (10)
000002b: 0a                                        ; section code
000002c: 00                                        ; section size (guess)
000002d: 01                                        ; num functions
; function body 0
000002e: 00                                        ; func body size (guess)
000002f: 01                                        ; local decl count
0000030: 03                                        ; local type count
0000031: 7f                                        ; i32
0000032: 41                                        ; i32.const
0000033: 01                                        ; i32 literal
0000034: 21                                        ; local.set
0000035: 01                                        ; local index
0000036: 20                                        ; local.get
0000037: 00                                        ; local index
0000038: 41                                        ; i32.const
0000039: 00                                        ; i32 literal
000003a: 4a                                        ; i32.gt_s
000003b: 04                                        ; if
000003c: 40                                        ; void
000003d: 03                                        ; loop
000003e: 40                                        ; void
000003f: 20                                        ; local.get
0000040: 00                                        ; local index
0000041: 41                                        ; i32.const
0000042: 01                                        ; i32 literal
0000043: 6b                                        ; i32.sub
0000044: 22                                        ; local.tee
0000045: 00                                        ; local index
0000046: 04                                        ; if
0000047: 40                                        ; void
0000048: 20                                        ; local.get
0000049: 01                                        ; local index
000004a: 20                                        ; local.get
000004b: 02                                        ; local index
000004c: 6a                                        ; i32.add
000004d: 21                                        ; local.set
000004e: 03                                        ; local index
000004f: 20                                        ; local.get
0000050: 01                                        ; local index
0000051: 21                                        ; local.set
0000052: 02                                        ; local index
0000053: 20                                        ; local.get
0000054: 03                                        ; local index
0000055: 21                                        ; local.set
0000056: 01                                        ; local index
0000057: 0c                                        ; br
0000058: 01                                        ; break depth
0000059: 0b                                        ; end
000005a: 0b                                        ; end
000005b: 20                                        ; local.get
000005c: 01                                        ; local index
000005d: 0f                                        ; return
000005e: 0b                                        ; end
000005f: 41                                        ; i32.const
0000060: 00                                        ; i32 literal
0000061: 0b                                        ; end
000002e: 33                                        ; FIXUP func body size
000002c: 35                                        ; FIXUP section size
; section "name"
0000062: 00                                        ; section code
0000063: 00                                        ; section size (guess)
0000064: 04                                        ; string length
0000065: 6e61 6d65                                name  ; custom section name
0000069: 02                                        ; local name type
000006a: 00                                        ; subsection size (guess)
000006b: 01                                        ; num functions
000006c: 00                                        ; function index
000006d: 04                                        ; num locals
000006e: 00                                        ; local index
000006f: 01                                        ; string length
0000070: 30                                       0  ; local name 0
0000071: 01                                        ; local index
0000072: 01                                        ; string length
0000073: 31                                       1  ; local name 1
0000074: 02                                        ; local index
0000075: 01                                        ; string length
0000076: 32                                       2  ; local name 2
0000077: 03                                        ; local index
0000078: 01                                        ; string length
0000079: 33                                       3  ; local name 3
000006a: 0f                                        ; FIXUP subsection size
000007a: 06                                        ; name subsection type
000007b: 00                                        ; subsection size (guess)
000007c: 01                                        ; num names
000007d: 00                                        ; elem index
000007e: 01                                        ; string length
000007f: 30                                       0  ; elem name 0
000007b: 04                                        ; FIXUP subsection size
0000063: 1c                                        ; FIXUP section size