0000000: 0061 736d                                 ; WASM_BINARY_MAGIC
0000004: 0100 0000                                 ; WASM_BINARY_VERSION
; section "Type" (1)
0000008: 01                                        ; section code
0000009: 00                                        ; section size (guess)
000000a: 01                                        ; num types
; func type 0
000000b: 60                                        ; func
000000c: 02                                        ; num params
000000d: 7f                                        ; i32
000000e: 7f                                        ; i32
000000f: 01                                        ; num results
0000010: 7f                                        ; i32
0000009: 07                                        ; FIXUP section size
; section "Function" (3)
0000011: 03                                        ; section code
0000012: 00                                        ; section size (guess)
0000013: 03                                        ; num functions
0000014: 00                                        ; function 0 signature index
0000015: 00                                        ; function 1 signature index
0000016: 00                                        ; function 2 signature index
0000012: 04                                        ; FIXUP section size
; section "Memory" (5)
0000017: 05                                        ; section code
0000018: 00                                        ; section size (guess)
0000019: 01                                        ; num memories
; memory 0
000001a: 00                                        ; limits: flags
000001b: 0a                                        ; limits: initial
0000018: 03                                        ; FIXUP section size
; section "Global" (6)
000001c: 06                                        ; section code
000001d: 00                                        ; section size (guess)
000001e: 04                                        ; num globals
000001f: 7e                                        ; i64
0000020: 01                                        ; global mutability
0000021: 42                                        ; i64.const
0000022: 00                                        ; i64 literal
0000023: 0b                                        ; end
0000024: 7e                                        ; i64
0000025: 00                                        ; global mutability
0000026: 42                                        ; i64.const
0000027: 00                                        ; i64 literal
0000028: 0b                                        ; end
0000029: 7e                                        ; i64
000002a: 00                                        ; global mutability
000002b: 42                                        ; i64.const
000002c: 00                                        ; i64 literal
000002d: 0b                                        ; end
000002e: 7e                                        ; i64
000002f: 01                                        ; global mutability
0000030: 42                                        ; i64.const
0000031: 00                                        ; i64 literal
0000032: 0b                                        ; end
000001d: 15                                        ; FIXUP section size
; section "Export" (7)
0000033: 07                                        ; section code
0000034: 00                                        ; section size (guess)
0000035: 02                                        ; num exports
0000036: 03                                        ; string length
0000037: 6164 64                                  add  ; export name
000003a: 00                                        ; export kind
000003b: 00                                        ; export func index
000003c: 07                                        ; string length
000003d: 636f 6d70 6c65 78                        complex  ; export name
0000044: 00                                        ; export kind
0000045: 02                                        ; export func index
0000034: 11                                        ; FIXUP section size
; section "Code" (10)
0000046: 0a                                        ; section code
0000047: 00                                        ; section size (guess)
0000048: 03                                        ; num functions
; function body 0
0000049: 00                                        ; func body size (guess)
000004a: 00                                        ; local decl count
000004b: 20                                        ; local.get
000004c: 00                                        ; local index
000004d: 20                                        ; local.get
000004e: 01                                        ; local index
000004f: 6a                                        ; i32.add
0000050: 0b                                        ; end
0000049: 07                                        ; FIXUP func body size
; function body 1
0000051: 00                                        ; func body size (guess)
0000052: 00                                        ; local decl count
0000053: 20                                        ; local.get
0000054: 00                                        ; local index
0000055: 20                                        ; local.get
0000056: 01                                        ; local index
0000057: 6b                                        ; i32.sub
0000058: 0b                                        ; end
0000051: 07                                        ; FIXUP func body size
; function body 2
0000059: 00                                        ; func body size (guess)
000005a: 01                                        ; local decl count
000005b: 01                                        ; local type count
000005c: 7f                                        ; i32
000005d: 41                                        ; i32.const
000005e: 7f                                        ; i32 literal
000005f: 21                                        ; local.set
0000060: 02                                        ; local index
0000061: 41                                        ; i32.const
0000062: 8080 8080 78                              ; i32 literal
0000067: 21                                        ; local.set
0000068: 02                                        ; local index
0000069: 20                                        ; local.get
000006a: 00                                        ; local index
000006b: 20                                        ; local.get
000006c: 01                                        ; local index
000006d: 10                                        ; call
000006e: 01                                        ; function index
000006f: 20                                        ; local.get
0000070: 02                                        ; local index
0000071: 6c                                        ; i32.mul
0000072: 0b                                        ; end
0000059: 19                                        ; FIXUP func body size
0000047: 2b                                        ; FIXUP section size
; section "name"
0000073: 00                                        ; section code
0000074: 00                                        ; section size (guess)
0000075: 04                                        ; string length
0000076: 6e61 6d65                                name  ; custom section name
000007a: 01                                        ; name subsection type
000007b: 00                                        ; subsection size (guess)
000007c: 03                                        ; num names
000007d: 00                                        ; elem index
000007e: 03                                        ; string length
000007f: 6164 64                                  add  ; elem name 0
0000082: 01                                        ; elem index
0000083: 03                                        ; string length
0000084: 7375 62                                  sub  ; elem name 1
0000087: 02                                        ; elem index
0000088: 07                                        ; string length
0000089: 636f 6d70 6c65 78                        complex  ; elem name 2
000007b: 14                                        ; FIXUP subsection size
0000090: 02                                        ; local name type
0000091: 00                                        ; subsection size (guess)
0000092: 03                                        ; num functions
0000093: 00                                        ; function index
0000094: 02                                        ; num locals
0000095: 00                                        ; local index
0000096: 03                                        ; string length
0000097: 6c68 73                                  lhs  ; local name 0
000009a: 01                                        ; local index
000009b: 03                                        ; string length
000009c: 7268 73                                  rhs  ; local name 1
000009f: 01                                        ; function index
00000a0: 02                                        ; num locals
00000a1: 00                                        ; local index
00000a2: 03                                        ; string length
00000a3: 6c68 73                                  lhs  ; local name 0
00000a6: 01                                        ; local index
00000a7: 03                                        ; string length
00000a8: 7268 73                                  rhs  ; local name 1
00000ab: 02                                        ; function index
00000ac: 03                                        ; num locals
00000ad: 00                                        ; local index
00000ae: 03                                        ; string length
00000af: 6c68 73                                  lhs  ; local name 0
00000b2: 01                                        ; local index
00000b3: 03                                        ; string length
00000b4: 7268 73                                  rhs  ; local name 1
00000b7: 02                                        ; local index
00000b8: 01                                        ; string length
00000b9: 69                                       i  ; local name 2
0000091: 28                                        ; FIXUP subsection size
00000ba: 07                                        ; name subsection type
00000bb: 00                                        ; subsection size (guess)
00000bc: 04                                        ; num names
00000bd: 00                                        ; elem index
00000be: 03                                        ; string length
00000bf: 615f 30                                  a_0  ; elem name 0
00000c2: 01                                        ; elem index
00000c3: 03                                        ; string length
00000c4: 625f 30                                  b_0  ; elem name 1
00000c7: 02                                        ; elem index
00000c8: 03                                        ; string length
00000c9: 615f 31                                  a_1  ; elem name 2
00000cc: 03                                        ; elem index
00000cd: 03                                        ; string length
00000ce: 625f 31                                  b_1  ; elem name 3
00000bb: 15                                        ; FIXUP subsection size
0000074: 5c                                        ; FIXUP section size