0000000: 0061 736d                                 ; WASM_BINARY_MAGIC
0000004: 0100 0000                                 ; WASM_BINARY_VERSION
; section "Type" (1)
0000008: 01                                        ; section code
0000009: 00                                        ; section size (guess)
000000a: 01                                        ; num types
; func type 0
000000b: 60                                        ; func
000000c: 02                                        ; num params
000000d: 7f                                        ; i32
000000e: 7f                                        ; i32
000000f: 01                                        ; num results
0000010: 7f                                        ; i32
0000009: 07                                        ; FIXUP section size
; section "Function" (3)
0000011: 03                                        ; section code
0000012: 00                                        ; section size (guess)
0000013: 03                                        ; num functions
0000014: 00                                        ; function 0 signature index
0000015: 00                                        ; function 1 signature index
0000016: 00                                        ; function 2 signature index
0000012: 04                                        ; FIXUP section size
; section "Memory" (5)
0000017: 05                                        ; section code
0000018: 00                                        ; section size (guess)
0000019: 01                                        ; num memories
; memory 0
000001a: 00                                        ; limits: flags
000001b: 0a                                        ; limits: initial
0000018: 03                                        ; FIXUP section size
; section "Global" (6)
000001c: 06                                        ; section code
000001d: 00                                        ; section size (guess)
000001e: 04                                        ; num globals
000001f: 7e                                        ; i64
0000020: 01                                        ; global mutability
0000021: 42                                        ; i64.const
0000022: 00                                        ; i64 literal
0000023: 0b                                        ; end
0000024: 7e                                        ; i64
0000025: 00                                        ; global mutability
0000026: 42                                        ; i64.const
0000027: 00                                        ; i64 literal
0000028: 0b                                        ; end
0000029: 7e                                        ; i64
000002a: 00                                        ; global mutability
000002b: 42                                        ; i64.const
000002c: 00                                        ; i64 literal
000002d: 0b                                        ; end
000002e: 7e                                        ; i64
000002f: 01                                        ; global mutability
0000030: 42                                        ; i64.const
0000031: 00                                        ; i64 literal
0000032: 0b                                        ; end
000001d: 15                                        ; FIXUP section size
; section "Export" (7)
0000033: 07                                        ; section code
0000034: 00                                        ; section size (guess)
0000035: 02                                        ; num exports
0000036: 03                                        ; string length
0000037: 6164 64                                  add  ; export name
000003a: 00                                        ; export kind
000003b: 00                                        ; export func index
000003c: 07                                        ; string length
000003d: 636f 6d70 6c65 78                        complex  ; export name
0000044: 00                                        ; export kind
0000045: 02                                        ; export func index
0000034: 11                                        ; FIXUP section size
; section "Code" (10)
0000046: 0a                                        ; section code
0000047: 00                                        ; section size (guess)
0000048: 03                                        ; num functions
; function body 0
0000049: 00                                        ; func body size (guess)
000004a: 00                                        ; local decl count
000004b: 20                                        ; local.get
000004c: 00                                        ; local index
000004d: 20                                        ; local.get
000004e: 01                                        ; local index
000004f: 6a                                        ; i32.add
0000050: 0b                                        ; end
0000049: 07                                        ; FIXUP func body size
; function body 1
0000051: 00                                        ; func body size (guess)
0000052: 00                                        ; local decl count
0000053: 20                                        ; local.get
0000054: 00                                        ; local index
0000055: 20                                        ; local.get
0000056: 01                                        ; local index
0000057: 6b                                        ; i32.sub
0000058: 0b                                        ; end
0000051: 07                                        ; FIXUP func body size
; function body 2
0000059: 00                                        ; func body size (guess)
000005a: 01                                        ; local decl count
000005b: 01                                        ; local type count
000005c: 7f                                        ; i32
000005d: 41                                        ; i32.const
000005e: 7f                                        ; i32 literal
000005f: 21                                        ; local.set
0000060: 02                                        ; local index
0000061: 41                                        ; i32.const
0000062: 8080 8080 78                              ; i32 literal
0000067: 21                                        ; local.set
0000068: 02                                        ; local index
0000069: 20                                        ; local.get
000006a: 00                                        ; local index
000006b: 20                                        ; local.get
000006c: 01                                        ; local index
000006d: 10                                        ; call
000006e: 01                                        ; function index
000006f: 20                                        ; local.get
0000070: 02                                        ; local index
0000071: 6c                                        ; i32.mul
0000072: 0b                                        ; end
0000059: 19                                        ; FIXUP func body size
0000047: 2b                                        ; FIXUP section size
; section "name"
0000073: 00                                        ; section code
0000074: 00                                        ; section size (guess)
0000075: 04                                        ; string length
0000076: 6e61 6d65                                name  ; custom section name
000007a: 00                                        ; module name type
000007b: 00                                        ; subsection size (guess)
000007c: 0a                                        ; string length
000007d: 4865 6c6c 6f57 6f72 6c64                 HelloWorld  ; module name
000007b: 0b                                        ; FIXUP subsection size
0000087: 01                                        ; name subsection type
0000088: 00                                        ; subsection size (guess)
0000089: 03                                        ; num names
000008a: 00                                        ; elem index
000008b: 03                                        ; string length
000008c: 6164 64                                  add  ; elem name 0
000008f: 01                                        ; elem index
0000090: 03                                        ; string length
0000091: 7375 62                                  sub  ; elem name 1
0000094: 02                                        ; elem index
0000095: 07                                        ; string length
0000096: 636f 6d70 6c65 78                        complex  ; elem name 2
0000088: 14                                        ; FIXUP subsection size
000009d: 02                                        ; local name type
000009e: 00                                        ; subsection size (guess)
000009f: 03                                        ; num functions
00000a0: 00                                        ; function index
00000a1: 02                                        ; num locals
00000a2: 00                                        ; local index
00000a3: 03                                        ; string length
00000a4: 6c68 73                                  lhs  ; local name 0
00000a7: 01                                        ; local index
00000a8: 03                                        ; string length
00000a9: 7268 73                                  rhs  ; local name 1
00000ac: 01                                        ; function index
00000ad: 02                                        ; num locals
00000ae: 00                                        ; local index
00000af: 03                                        ; string length
00000b0: 6c68 73                                  lhs  ; local name 0
00000b3: 01                                        ; local index
00000b4: 03                                        ; string length
00000b5: 7268 73                                  rhs  ; local name 1
00000b8: 02                                        ; function index
00000b9: 03                                        ; num locals
00000ba: 00                                        ; local index
00000bb: 03                                        ; string length
00000bc: 6c68 73                                  lhs  ; local name 0
00000bf: 01                                        ; local index
00000c0: 03                                        ; string length
00000c1: 7268 73                                  rhs  ; local name 1
00000c4: 02                                        ; local index
00000c5: 01                                        ; string length
00000c6: 69                                       i  ; local name 2
000009e: 28                                        ; FIXUP subsection size
00000c7: 07                                        ; name subsection type
00000c8: 00                                        ; subsection size (guess)
00000c9: 04                                        ; num names
00000ca: 00                                        ; elem index
00000cb: 03                                        ; string length
00000cc: 615f 30                                  a_0  ; elem name 0
00000cf: 01                                        ; elem index
00000d0: 03                                        ; string length
00000d1: 625f 30                                  b_0  ; elem name 1
00000d4: 02                                        ; elem index
00000d5: 03                                        ; string length
00000d6: 615f 31                                  a_1  ; elem name 2
00000d9: 03                                        ; elem index
00000da: 03                                        ; string length
00000db: 625f 31                                  b_1  ; elem name 3
00000c8: 15                                        ; FIXUP subsection size
0000074: 69                                        ; FIXUP section size