0000000: 0061 736d                                 ; WASM_BINARY_MAGIC
0000004: 0100 0000                                 ; WASM_BINARY_VERSION
; section "Type" (1)
0000008: 01                                        ; section code
0000009: 00                                        ; section size (guess)
000000a: 09                                        ; num types
; func type 0
000000b: 60                                        ; func
000000c: 02                                        ; num params
000000d: 7f                                        ; i32
000000e: 7f                                        ; i32
000000f: 00                                        ; num results
; func type 1
0000010: 60                                        ; func
0000011: 02                                        ; num params
0000012: 7f                                        ; i32
0000013: 7f                                        ; i32
0000014: 01                                        ; num results
0000015: 7f                                        ; i32
; func type 2
0000016: 60                                        ; func
0000017: 00                                        ; num params
0000018: 01                                        ; num results
0000019: 7f                                        ; i32
; func type 3
000001a: 60                                        ; func
000001b: 04                                        ; num params
000001c: 7f                                        ; i32
000001d: 7f                                        ; i32
000001e: 7f                                        ; i32
000001f: 7f                                        ; i32
0000020: 00                                        ; num results
; func type 4
0000021: 60                                        ; func
0000022: 03                                        ; num params
0000023: 7c                                        ; f64
0000024: 7c                                        ; f64
0000025: 7f                                        ; i32
0000026: 01                                        ; num results
0000027: 7f                                        ; i32
; func type 5
0000028: 60                                        ; func
0000029: 04                                        ; num params
000002a: 7c                                        ; f64
000002b: 7c                                        ; f64
000002c: 7c                                        ; f64
000002d: 7c                                        ; f64
000002e: 01                                        ; num results
000002f: 7c                                        ; f64
; func type 6
0000030: 60                                        ; func
0000031: 03                                        ; num params
0000032: 7f                                        ; i32
0000033: 7f                                        ; i32
0000034: 7f                                        ; i32
0000035: 00                                        ; num results
; func type 7
0000036: 60                                        ; func
0000037: 04                                        ; num params
0000038: 7f                                        ; i32
0000039: 7c                                        ; f64
000003a: 7c                                        ; f64
000003b: 7c                                        ; f64
000003c: 00                                        ; num results
; func type 8
000003d: 60                                        ; func
000003e: 00                                        ; num params
000003f: 00                                        ; num results
0000009: 36                                        ; FIXUP section size
; section "Import" (2)
0000040: 02                                        ; section code
0000041: 00                                        ; section size (guess)
0000042: 01                                        ; num imports
; import header 0
0000043: 03                                        ; string length
0000044: 656e 76                                  env  ; import module name
0000047: 05                                        ; string length
0000048: 6162 6f72 74                             abort  ; import field name
000004d: 00                                        ; import kind
000004e: 03                                        ; import signature index
0000041: 0d                                        ; FIXUP section size
; section "Function" (3)
000004f: 03                                        ; section code
0000050: 00                                        ; section size (guess)
0000051: 0c                                        ; num functions
0000052: 00                                        ; function 0 signature index
0000053: 00                                        ; function 1 signature index
0000054: 01                                        ; function 2 signature index
0000055: 00                                        ; function 3 signature index
0000056: 04                                        ; function 4 signature index
0000057: 05                                        ; function 5 signature index
0000058: 01                                        ; function 6 signature index
0000059: 06                                        ; function 7 signature index
000005a: 07                                        ; function 8 signature index
000005b: 02                                        ; function 9 signature index
000005c: 02                                        ; function 10 signature index
000005d: 08                                        ; function 11 signature index
0000050: 0d                                        ; FIXUP section size
; section "Memory" (5)
000005e: 05                                        ; section code
000005f: 00                                        ; section size (guess)
0000060: 01                                        ; num memories
; memory 0
0000061: 00                                        ; limits: flags
0000062: 3c                                        ; limits: initial
000005f: 03                                        ; FIXUP section size
; section "Global" (6)
0000063: 06                                        ; section code
0000064: 00                                        ; section size (guess)
0000065: 04                                        ; num globals
0000066: 7f                                        ; i32
0000067: 01                                        ; global mutability
0000068: 41                                        ; i32.const
0000069: b009                                      ; i32 literal
000006b: 0b                                        ; end
000006c: 7f                                        ; i32
000006d: 01                                        ; global mutability
000006e: 41                                        ; i32.const
000006f: a006                                      ; i32 literal
0000071: 0b                                        ; end
0000072: 7f                                        ; i32
0000073: 01                                        ; global mutability
0000074: 41                                        ; i32.const
0000075: 00                                        ; i32 literal
0000076: 0b                                        ; end
0000077: 7f                                        ; i32
0000078: 01                                        ; global mutability
0000079: 41                                        ; i32.const
000007a: 00                                        ; i32 literal
000007b: 0b                                        ; end
0000064: 17                                        ; FIXUP section size
; section "Export" (7)
000007c: 07                                        ; section code
000007d: 00                                        ; section size (guess)
000007e: 07                                        ; num exports
000007f: 05                                        ; string length
0000080: 7769 6474 68                             width  ; export name
0000085: 03                                        ; export kind
0000086: 00                                        ; export global index
0000087: 06                                        ; string length
0000088: 6865 6967 6874                           height  ; export name
000008e: 03                                        ; export kind
000008f: 01                                        ; export global index
0000090: 0f                                        ; string length
0000091: 6974 6572 6174 6545 7175 6174 696f 6e    iterateEquation  ; export name
00000a0: 00                                        ; export kind
00000a1: 05                                        ; export func index
00000a2: 0a                                        ; string length
00000a3: 6d61 6e64 656c 6272 6f74                 mandelbrot  ; export name
00000ad: 00                                        ; export kind
00000ae: 09                                        ; export func index
00000af: 07                                        ; string length
00000b0: 6765 7444 6174 61                        getData  ; export name
00000b7: 00                                        ; export kind
00000b8: 0a                                        ; export func index
00000b9: 0d                                        ; string length
00000ba: 6765 7444 6174 6142 7566 6665 72         getDataBuffer  ; export name
00000c7: 00                                        ; export kind
00000c8: 0b                                        ; export func index
00000c9: 06                                        ; string length
00000ca: 6d65 6d6f 7279                           memory  ; export name
00000d0: 02                                        ; export kind
00000d1: 00                                        ; export memory index
000007d: 54                                        ; FIXUP section size
; section "Start" (8)
00000d2: 08                                        ; section code
00000d3: 00                                        ; section size (guess)
00000d4: 0c                                        ; start func index
00000d3: 01                                        ; FIXUP section size
; section "DataCount" (12)
00000d5: 0c                                        ; section code
00000d6: 00                                        ; section size (guess)
00000d7: 08                                        ; data count
00000d6: 01                                        ; FIXUP section size
; section "Code" (10)
00000d8: 0a                                        ; section code
00000d9: 00                                        ; section size (guess)
00000da: 0c                                        ; num functions
; function body 0
00000db: 00                                        ; func body size (guess)
00000dc: 00                                        ; local decl count
00000dd: 20                                        ; local.get
00000de: 00                                        ; local index
00000df: 20                                        ; local.get
00000e0: 01                                        ; local index
00000e1: 36                                        ; i32.store
00000e2: 02                                        ; alignment
00000e3: 04                                        ; store offset
00000e4: 0b                                        ; end
00000db: 09                                        ; FIXUP func body size
; function body 1
00000e5: 00                                        ; func body size (guess)
00000e6: 00                                        ; local decl count
00000e7: 20                                        ; local.get
00000e8: 00                                        ; local index
00000e9: 20                                        ; local.get
00000ea: 01                                        ; local index
00000eb: 36                                        ; i32.store
00000ec: 02                                        ; alignment
00000ed: 08                                        ; store offset
00000ee: 0b                                        ; end
00000e5: 09                                        ; FIXUP func body size
; function body 2
00000ef: 00                                        ; func body size (guess)
00000f0: 01                                        ; local decl count
00000f1: 06                                        ; local type count
00000f2: 7f                                        ; i32
00000f3: 20                                        ; local.get
00000f4: 00                                        ; local index
00000f5: 41                                        ; i32.const
00000f6: ecff ffff 03                              ; i32 literal
00000fb: 4b                                        ; i32.gt_u
00000fc: 04                                        ; if
00000fd: 40                                        ; void
00000fe: 41                                        ; i32.const
00000ff: 9009                                      ; i32 literal
0000101: 41                                        ; i32.const
0000102: d009                                      ; i32 literal
0000104: 41                                        ; i32.const
0000105: d600                                      ; i32 literal
0000107: 41                                        ; i32.const
0000108: 1e                                        ; i32 literal
0000109: 10                                        ; call
000010a: 00                                        ; function index
000010b: 00                                        ; unreachable
000010c: 0b                                        ; end
000010d: 20                                        ; local.get
000010e: 00                                        ; local index
000010f: 41                                        ; i32.const
0000110: 10                                        ; i32 literal
0000111: 6a                                        ; i32.add
0000112: 22                                        ; local.tee
0000113: 04                                        ; local index
0000114: 41                                        ; i32.const
0000115: fcff ffff 03                              ; i32 literal
000011a: 4b                                        ; i32.gt_u
000011b: 04                                        ; if
000011c: 40                                        ; void
000011d: 41                                        ; i32.const
000011e: 9009                                      ; i32 literal
0000120: 41                                        ; i32.const
0000121: d009                                      ; i32 literal
0000123: 41                                        ; i32.const
0000124: 21                                        ; i32 literal
0000125: 41                                        ; i32.const
0000126: 1d                                        ; i32 literal
0000127: 10                                        ; call
0000128: 00                                        ; function index
0000129: 00                                        ; unreachable
000012a: 0b                                        ; end
000012b: 23                                        ; global.get
000012c: 02                                        ; global index
000012d: 21                                        ; local.set
000012e: 03                                        ; local index
000012f: 23                                        ; global.get
0000130: 02                                        ; global index
0000131: 41                                        ; i32.const
0000132: 04                                        ; i32 literal
0000133: 6a                                        ; i32.add
0000134: 22                                        ; local.tee
0000135: 02                                        ; local index
0000136: 20                                        ; local.get
0000137: 04                                        ; local index
0000138: 41                                        ; i32.const
0000139: 13                                        ; i32 literal
000013a: 6a                                        ; i32.add
000013b: 41                                        ; i32.const
000013c: 70                                        ; i32 literal
000013d: 71                                        ; i32.and
000013e: 41                                        ; i32.const
000013f: 04                                        ; i32 literal
0000140: 6b                                        ; i32.sub
0000141: 22                                        ; local.tee
0000142: 04                                        ; local index
0000143: 6a                                        ; i32.add
0000144: 22                                        ; local.tee
0000145: 05                                        ; local index
0000146: 3f                                        ; memory.size
0000147: 00                                        ; memory.size memidx
0000148: 22                                        ; local.tee
0000149: 06                                        ; local index
000014a: 41                                        ; i32.const
000014b: 10                                        ; i32 literal
000014c: 74                                        ; i32.shl
000014d: 41                                        ; i32.const
000014e: 0f                                        ; i32 literal
000014f: 6a                                        ; i32.add
0000150: 41                                        ; i32.const
0000151: 70                                        ; i32 literal
0000152: 71                                        ; i32.and
0000153: 22                                        ; local.tee
0000154: 07                                        ; local index
0000155: 4b                                        ; i32.gt_u
0000156: 04                                        ; if
0000157: 40                                        ; void
0000158: 20                                        ; local.get
0000159: 06                                        ; local index
000015a: 20                                        ; local.get
000015b: 05                                        ; local index
000015c: 20                                        ; local.get
000015d: 07                                        ; local index
000015e: 6b                                        ; i32.sub
000015f: 41                                        ; i32.const
0000160: ffff 03                                   ; i32 literal
0000163: 6a                                        ; i32.add
0000164: 41                                        ; i32.const
0000165: 8080 7c                                   ; i32 literal
0000168: 71                                        ; i32.and
0000169: 41                                        ; i32.const
000016a: 10                                        ; i32 literal
000016b: 76                                        ; i32.shr_u
000016c: 22                                        ; local.tee
000016d: 07                                        ; local index
000016e: 20                                        ; local.get
000016f: 06                                        ; local index
0000170: 20                                        ; local.get
0000171: 07                                        ; local index
0000172: 4a                                        ; i32.gt_s
0000173: 1b                                        ; select
0000174: 40                                        ; memory.grow
0000175: 00                                        ; memory.grow memidx
0000176: 41                                        ; i32.const
0000177: 00                                        ; i32 literal
0000178: 48                                        ; i32.lt_s
0000179: 04                                        ; if
000017a: 40                                        ; void
000017b: 20                                        ; local.get
000017c: 07                                        ; local index
000017d: 40                                        ; memory.grow
000017e: 00                                        ; memory.grow memidx
000017f: 41                                        ; i32.const
0000180: 00                                        ; i32 literal
0000181: 48                                        ; i32.lt_s
0000182: 04                                        ; if
0000183: 40                                        ; void
0000184: 00                                        ; unreachable
0000185: 0b                                        ; end
0000186: 0b                                        ; end
0000187: 0b                                        ; end
0000188: 20                                        ; local.get
0000189: 05                                        ; local index
000018a: 24                                        ; global.set
000018b: 02                                        ; global index
000018c: 20                                        ; local.get
000018d: 03                                        ; local index
000018e: 20                                        ; local.get
000018f: 04                                        ; local index
0000190: 36                                        ; i32.store
0000191: 02                                        ; alignment
0000192: 00                                        ; store offset
0000193: 20                                        ; local.get
0000194: 02                                        ; local index
0000195: 41                                        ; i32.const
0000196: 04                                        ; i32 literal
0000197: 6b                                        ; i32.sub
0000198: 22                                        ; local.tee
0000199: 03                                        ; local index
000019a: 41                                        ; i32.const
000019b: 00                                        ; i32 literal
000019c: 10                                        ; call
000019d: 01                                        ; function index
000019e: 20                                        ; local.get
000019f: 03                                        ; local index
00001a0: 41                                        ; i32.const
00001a1: 00                                        ; i32 literal
00001a2: 10                                        ; call
00001a3: 02                                        ; function index
00001a4: 20                                        ; local.get
00001a5: 03                                        ; local index
00001a6: 20                                        ; local.get
00001a7: 01                                        ; local index
00001a8: 36                                        ; i32.store
00001a9: 02                                        ; alignment
00001aa: 0c                                        ; store offset
00001ab: 20                                        ; local.get
00001ac: 03                                        ; local index
00001ad: 20                                        ; local.get
00001ae: 00                                        ; local index
00001af: 36                                        ; i32.store
00001b0: 02                                        ; alignment
00001b1: 10                                        ; store offset
00001b2: 20                                        ; local.get
00001b3: 02                                        ; local index
00001b4: 41                                        ; i32.const
00001b5: 10                                        ; i32 literal
00001b6: 6a                                        ; i32.add
00001b7: 0b                                        ; end
; move data: [f0, 1b8) -> [f1, 1b9)
00000ef: c801                                      ; FIXUP func body size
; function body 3
00001b9: 00                                        ; func body size (guess)
00001ba: 00                                        ; local decl count
00001bb: 20                                        ; local.get
00001bc: 00                                        ; local index
00001bd: 20                                        ; local.get
00001be: 01                                        ; local index
00001bf: 36                                        ; i32.store
00001c0: 02                                        ; alignment
00001c1: 00                                        ; store offset
00001c2: 0b                                        ; end
00001b9: 09                                        ; FIXUP func body size
; function body 4
00001c3: 00                                        ; func body size (guess)
00001c4: 03                                        ; local decl count
00001c5: 02                                        ; local type count
00001c6: 7c                                        ; f64
00001c7: 01                                        ; local type count
00001c8: 7f                                        ; i32
00001c9: 01                                        ; local type count
00001ca: 7c                                        ; f64
00001cb: 03                                        ; loop
00001cc: 40                                        ; void
00001cd: 20                                        ; local.get
00001ce: 02                                        ; local index
00001cf: 20                                        ; local.get
00001d0: 05                                        ; local index
00001d1: 4b                                        ; i32.gt_u
00001d2: 20                                        ; local.get
00001d3: 06                                        ; local index
00001d4: 20                                        ; local.get
00001d5: 06                                        ; local index
00001d6: a2                                        ; f64.mul
00001d7: 20                                        ; local.get
00001d8: 04                                        ; local index
00001d9: 20                                        ; local.get
00001da: 04                                        ; local index
00001db: a2                                        ; f64.mul
00001dc: a0                                        ; f64.add
00001dd: 44                                        ; f64.const
00001de: 0000 0000 0000 1040                       ; f64 literal
00001e6: 65                                        ; f64.le
00001e7: 71                                        ; i32.and
00001e8: 04                                        ; if
00001e9: 40                                        ; void
00001ea: 20                                        ; local.get
00001eb: 06                                        ; local index
00001ec: 20                                        ; local.get
00001ed: 03                                        ; local index
00001ee: a2                                        ; f64.mul
00001ef: 22                                        ; local.tee
00001f0: 04                                        ; local index
00001f1: 20                                        ; local.get
00001f2: 04                                        ; local index
00001f3: a0                                        ; f64.add
00001f4: 20                                        ; local.get
00001f5: 01                                        ; local index
00001f6: a0                                        ; f64.add
00001f7: 21                                        ; local.set
00001f8: 04                                        ; local index
00001f9: 20                                        ; local.get
00001fa: 06                                        ; local index
00001fb: 20                                        ; local.get
00001fc: 06                                        ; local index
00001fd: a2                                        ; f64.mul
00001fe: 20                                        ; local.get
00001ff: 03                                        ; local index
0000200: 20                                        ; local.get
0000201: 03                                        ; local index
0000202: a2                                        ; f64.mul
0000203: a1                                        ; f64.sub
0000204: 20                                        ; local.get
0000205: 00                                        ; local index
0000206: a0                                        ; f64.add
0000207: 21                                        ; local.set
0000208: 06                                        ; local index
0000209: 20                                        ; local.get
000020a: 04                                        ; local index
000020b: 21                                        ; local.set
000020c: 03                                        ; local index
000020d: 20                                        ; local.get
000020e: 05                                        ; local index
000020f: 41                                        ; i32.const
0000210: 01                                        ; i32 literal
0000211: 6a                                        ; i32.add
0000212: 21                                        ; local.set
0000213: 05                                        ; local index
0000214: 0c                                        ; br
0000215: 01                                        ; break depth
0000216: 0b                                        ; end
0000217: 0b                                        ; end
0000218: 20                                        ; local.get
0000219: 05                                        ; local index
000021a: 0b                                        ; end
00001c3: 57                                        ; FIXUP func body size
; function body 5
000021b: 00                                        ; func body size (guess)
000021c: 00                                        ; local decl count
000021d: 20                                        ; local.get
000021e: 00                                        ; local index
000021f: 20                                        ; local.get
0000220: 01                                        ; local index
0000221: 20                                        ; local.get
0000222: 03                                        ; local index
0000223: 44                                        ; f64.const
0000224: 0000 0000 0000 f03f                       ; f64 literal
000022c: 20                                        ; local.get
000022d: 02                                        ; local index
000022e: a3                                        ; f64.div
000022f: a2                                        ; f64.mul
0000230: 44                                        ; f64.const
0000231: 0000 0000 0000 f0bf                       ; f64 literal
0000239: a0                                        ; f64.add
000023a: a2                                        ; f64.mul
000023b: a0                                        ; f64.add
000023c: 0b                                        ; end
000021b: 21                                        ; FIXUP func body size
; function body 6
000023d: 00                                        ; func body size (guess)
000023e: 00                                        ; local decl count
000023f: 20                                        ; local.get
0000240: 00                                        ; local index
0000241: 41                                        ; i32.const
0000242: 02                                        ; i32 literal
0000243: 74                                        ; i32.shl
0000244: 20                                        ; local.get
0000245: 01                                        ; local index
0000246: 6a                                        ; i32.add
0000247: 41                                        ; i32.const
0000248: ff07                                      ; i32 literal
000024a: 71                                        ; i32.and
000024b: 22                                        ; local.tee
000024c: 00                                        ; local index
000024d: 41                                        ; i32.const
000024e: 8002                                      ; i32 literal
0000250: 49                                        ; i32.lt_u
0000251: 04                                        ; if
0000252: 40                                        ; void
0000253: 20                                        ; local.get
0000254: 00                                        ; local index
0000255: 0f                                        ; return
0000256: 05                                        ; else
0000257: 20                                        ; local.get
0000258: 00                                        ; local index
0000259: 41                                        ; i32.const
000025a: 8004                                      ; i32 literal
000025c: 49                                        ; i32.lt_u
000025d: 04                                        ; if
000025e: 40                                        ; void
000025f: 41                                        ; i32.const
0000260: fe03                                      ; i32 literal
0000262: 20                                        ; local.get
0000263: 00                                        ; local index
0000264: 6b                                        ; i32.sub
0000265: 0f                                        ; return
0000266: 0b                                        ; end
0000267: 0b                                        ; end
0000268: 41                                        ; i32.const
0000269: 00                                        ; i32 literal
000026a: 0b                                        ; end
000023d: 2d                                        ; FIXUP func body size
; function body 7
000026b: 00                                        ; func body size (guess)
000026c: 00                                        ; local decl count
000026d: 20                                        ; local.get
000026e: 00                                        ; local index
000026f: 28                                        ; i32.load
0000270: 02                                        ; alignment
0000271: 04                                        ; load offset
0000272: 20                                        ; local.get
0000273: 01                                        ; local index
0000274: 6a                                        ; i32.add
0000275: 20                                        ; local.get
0000276: 02                                        ; local index
0000277: 3a                                        ; i32.store8
0000278: 00                                        ; alignment
0000279: 00                                        ; store offset
000027a: 0b                                        ; end
000026b: 0f                                        ; FIXUP func body size
; function body 8
000027b: 00                                        ; func body size (guess)
000027c: 02                                        ; local decl count
000027d: 05                                        ; local type count
000027e: 7f                                        ; i32
000027f: 01                                        ; local type count
0000280: 7c                                        ; f64
0000281: 20                                        ; local.get
0000282: 03                                        ; local index
0000283: 23                                        ; global.get
0000284: 01                                        ; global index
0000285: b7                                        ; f64.convert_i32_s
0000286: a2                                        ; f64.mul
0000287: 23                                        ; global.get
0000288: 00                                        ; global index
0000289: b7                                        ; f64.convert_i32_s
000028a: a3                                        ; f64.div
000028b: 21                                        ; local.set
000028c: 09                                        ; local index
000028d: 03                                        ; loop
000028e: 40                                        ; void
000028f: 20                                        ; local.get
0000290: 05                                        ; local index
0000291: 23                                        ; global.get
0000292: 01                                        ; global index
0000293: 48                                        ; i32.lt_s
0000294: 04                                        ; if
0000295: 40                                        ; void
0000296: 41                                        ; i32.const
0000297: 00                                        ; i32 literal
0000298: 21                                        ; local.set
0000299: 04                                        ; local index
000029a: 03                                        ; loop
000029b: 40                                        ; void
000029c: 20                                        ; local.get
000029d: 04                                        ; local index
000029e: 23                                        ; global.get
000029f: 00                                        ; global index
00002a0: 48                                        ; i32.lt_s
00002a1: 04                                        ; if
00002a2: 40                                        ; void
00002a3: 20                                        ; local.get
00002a4: 01                                        ; local index
00002a5: 20                                        ; local.get
00002a6: 03                                        ; local index
00002a7: 23                                        ; global.get
00002a8: 00                                        ; global index
00002a9: b7                                        ; f64.convert_i32_s
00002aa: 20                                        ; local.get
00002ab: 04                                        ; local index
00002ac: b7                                        ; f64.convert_i32_s
00002ad: 10                                        ; call
00002ae: 06                                        ; function index
00002af: 20                                        ; local.get
00002b0: 02                                        ; local index
00002b1: 20                                        ; local.get
00002b2: 09                                        ; local index
00002b3: 23                                        ; global.get
00002b4: 01                                        ; global index
00002b5: b7                                        ; f64.convert_i32_s
00002b6: 20                                        ; local.get
00002b7: 05                                        ; local index
00002b8: b7                                        ; f64.convert_i32_s
00002b9: 10                                        ; call
00002ba: 06                                        ; function index
00002bb: 20                                        ; local.get
00002bc: 00                                        ; local index
00002bd: 10                                        ; call
00002be: 05                                        ; function index
00002bf: 22                                        ; local.tee
00002c0: 06                                        ; local index
00002c1: 20                                        ; local.get
00002c2: 00                                        ; local index
00002c3: 46                                        ; i32.eq
00002c4: 21                                        ; local.set
00002c5: 07                                        ; local index
00002c6: 23                                        ; global.get
00002c7: 03                                        ; global index
00002c8: 20                                        ; local.get
00002c9: 04                                        ; local index
00002ca: 20                                        ; local.get
00002cb: 05                                        ; local index
00002cc: 23                                        ; global.get
00002cd: 00                                        ; global index
00002ce: 6c                                        ; i32.mul
00002cf: 6a                                        ; i32.add
00002d0: 41                                        ; i32.const
00002d1: 02                                        ; i32 literal
00002d2: 74                                        ; i32.shl
00002d3: 22                                        ; local.tee
00002d4: 08                                        ; local index
00002d5: 20                                        ; local.get
00002d6: 07                                        ; local index
00002d7: 04                                        ; if
00002d8: 7f                                        ; i32
00002d9: 41                                        ; i32.const
00002da: 00                                        ; i32 literal
00002db: 05                                        ; else
00002dc: 20                                        ; local.get
00002dd: 06                                        ; local index
00002de: 41                                        ; i32.const
00002df: 00                                        ; i32 literal
00002e0: 10                                        ; call
00002e1: 07                                        ; function index
00002e2: 0b                                        ; end
00002e3: 10                                        ; call
00002e4: 08                                        ; function index
00002e5: 23                                        ; global.get
00002e6: 03                                        ; global index
00002e7: 20                                        ; local.get
00002e8: 08                                        ; local index
00002e9: 41                                        ; i32.const
00002ea: 01                                        ; i32 literal
00002eb: 6a                                        ; i32.add
00002ec: 20                                        ; local.get
00002ed: 07                                        ; local index
00002ee: 04                                        ; if
00002ef: 7f                                        ; i32
00002f0: 41                                        ; i32.const
00002f1: 00                                        ; i32 literal
00002f2: 05                                        ; else
00002f3: 20                                        ; local.get
00002f4: 06                                        ; local index
00002f5: 41                                        ; i32.const
00002f6: 8001                                      ; i32 literal
00002f8: 10                                        ; call
00002f9: 07                                        ; function index
00002fa: 0b                                        ; end
00002fb: 10                                        ; call
00002fc: 08                                        ; function index
00002fd: 23                                        ; global.get
00002fe: 03                                        ; global index
00002ff: 20                                        ; local.get
0000300: 08                                        ; local index
0000301: 41                                        ; i32.const
0000302: 02                                        ; i32 literal
0000303: 6a                                        ; i32.add
0000304: 20                                        ; local.get
0000305: 07                                        ; local index
0000306: 04                                        ; if
0000307: 7f                                        ; i32
0000308: 41                                        ; i32.const
0000309: 00                                        ; i32 literal
000030a: 05                                        ; else
000030b: 20                                        ; local.get
000030c: 06                                        ; local index
000030d: 41                                        ; i32.const
000030e: e402                                      ; i32 literal
0000310: 10                                        ; call
0000311: 07                                        ; function index
0000312: 0b                                        ; end
0000313: 10                                        ; call
0000314: 08                                        ; function index
0000315: 23                                        ; global.get
0000316: 03                                        ; global index
0000317: 20                                        ; local.get
0000318: 08                                        ; local index
0000319: 41                                        ; i32.const
000031a: 03                                        ; i32 literal
000031b: 6a                                        ; i32.add
000031c: 41                                        ; i32.const
000031d: ff01                                      ; i32 literal
000031f: 10                                        ; call
0000320: 08                                        ; function index
0000321: 20                                        ; local.get
0000322: 04                                        ; local index
0000323: 41                                        ; i32.const
0000324: 01                                        ; i32 literal
0000325: 6a                                        ; i32.add
0000326: 21                                        ; local.set
0000327: 04                                        ; local index
0000328: 0c                                        ; br
0000329: 01                                        ; break depth
000032a: 0b                                        ; end
000032b: 0b                                        ; end
000032c: 20                                        ; local.get
000032d: 05                                        ; local index
000032e: 41                                        ; i32.const
000032f: 01                                        ; i32 literal
0000330: 6a                                        ; i32.add
0000331: 21                                        ; local.set
0000332: 05                                        ; local index
0000333: 0c                                        ; br
0000334: 01                                        ; break depth
0000335: 0b                                        ; end
0000336: 0b                                        ; end
0000337: 0b                                        ; end
; move data: [27c, 338) -> [27d, 339)
000027b: bc01                                      ; FIXUP func body size
; function body 9
0000339: 00                                        ; func body size (guess)
000033a: 00                                        ; local decl count
000033b: 23                                        ; global.get
000033c: 03                                        ; global index
000033d: 0b                                        ; end
0000339: 04                                        ; FIXUP func body size
; function body 10
000033e: 00                                        ; func body size (guess)
000033f: 00                                        ; local decl count
0000340: 23                                        ; global.get
0000341: 03                                        ; global index
0000342: 28                                        ; i32.load
0000343: 02                                        ; alignment
0000344: 00                                        ; load offset
0000345: 0b                                        ; end
000033e: 07                                        ; FIXUP func body size
; function body 11
0000346: 00                                        ; func body size (guess)
0000347: 01                                        ; local decl count
0000348: 02                                        ; local type count
0000349: 7f                                        ; i32
000034a: 41                                        ; i32.const
000034b: fc09                                      ; i32 literal
000034d: 24                                        ; global.set
000034e: 02                                        ; global index
000034f: 41                                        ; i32.const
0000350: 0c                                        ; i32 literal
0000351: 41                                        ; i32.const
0000352: 04                                        ; i32 literal
0000353: 10                                        ; call
0000354: 03                                        ; function index
0000355: 22                                        ; local.tee
0000356: 00                                        ; local index
0000357: 45                                        ; i32.eqz
0000358: 04                                        ; if
0000359: 40                                        ; void
000035a: 41                                        ; i32.const
000035b: 0c                                        ; i32 literal
000035c: 41                                        ; i32.const
000035d: 03                                        ; i32 literal
000035e: 10                                        ; call
000035f: 03                                        ; function index
0000360: 21                                        ; local.set
0000361: 00                                        ; local index
0000362: 0b                                        ; end
0000363: 20                                        ; local.get
0000364: 00                                        ; local index
0000365: 41                                        ; i32.const
0000366: 00                                        ; i32 literal
0000367: 10                                        ; call
0000368: 04                                        ; function index
0000369: 20                                        ; local.get
000036a: 00                                        ; local index
000036b: 41                                        ; i32.const
000036c: 00                                        ; i32 literal
000036d: 10                                        ; call
000036e: 01                                        ; function index
000036f: 20                                        ; local.get
0000370: 00                                        ; local index
0000371: 41                                        ; i32.const
0000372: 00                                        ; i32 literal
0000373: 10                                        ; call
0000374: 02                                        ; function index
0000375: 41                                        ; i32.const
0000376: 80b0 ea01                                 ; i32 literal
000037a: 41                                        ; i32.const
000037b: 01                                        ; i32 literal
000037c: 10                                        ; call
000037d: 03                                        ; function index
000037e: 22                                        ; local.tee
000037f: 01                                        ; local index
0000380: 41                                        ; i32.const
0000381: 00                                        ; i32 literal
0000382: 41                                        ; i32.const
0000383: 80b0 ea01                                 ; i32 literal
0000387: fc                                        ; prefix
0000388: 0b                                        ; memory.fill
0000389: 00                                        ; memory.fill memidx
000038a: 20                                        ; local.get
000038b: 00                                        ; local index
000038c: 20                                        ; local.get
000038d: 01                                        ; local index
000038e: 10                                        ; call
000038f: 04                                        ; function index
0000390: 20                                        ; local.get
0000391: 00                                        ; local index
0000392: 20                                        ; local.get
0000393: 01                                        ; local index
0000394: 10                                        ; call
0000395: 01                                        ; function index
0000396: 20                                        ; local.get
0000397: 00                                        ; local index
0000398: 41                                        ; i32.const
0000399: 80b0 ea01                                 ; i32 literal
000039d: 10                                        ; call
000039e: 02                                        ; function index
000039f: 20                                        ; local.get
00003a0: 00                                        ; local index
00003a1: 24                                        ; global.set
00003a2: 03                                        ; global index
00003a3: 0b                                        ; end
0000346: 5d                                        ; FIXUP func body size
; move data: [da, 3a4) -> [db, 3a5)
00000d9: ca05                                      ; FIXUP section size
; move data: [d8, 3a5) -> [d5, 3a2)
; truncate to 930 (0x3a2)
; section "Data" (11)
00003a2: 0b                                        ; section code
00003a3: 00                                        ; section size (guess)
00003a4: 08                                        ; num data segments
; data segment header 0
00003a5: 00                                        ; segment flags
00003a6: 41                                        ; i32.const
00003a7: 8c08                                      ; i32 literal
00003a9: 0b                                        ; end
00003aa: 01                                        ; data segment size
; data segment data 0
00003ab: 2c                                        ; data segment data
; data segment header 1
00003ac: 00                                        ; segment flags
00003ad: 41                                        ; i32.const
00003ae: 9808                                      ; i32 literal
00003b0: 0b                                        ; end
00003b1: 23                                        ; data segment size
; data segment data 1
00003b2: 0200 0000 1c00 0000 4900 6e00 7600 6100 
00003c2: 6c00 6900 6400 2000 6c00 6500 6e00 6700 
00003d2: 7400 68                                   ; data segment data
; data segment header 2
00003d5: 00                                        ; segment flags
00003d6: 41                                        ; i32.const
00003d7: bc08                                      ; i32 literal
00003d9: 0b                                        ; end
00003da: 01                                        ; data segment size
; data segment data 2
00003db: 3c                                        ; data segment data
; data segment header 3
00003dc: 00                                        ; segment flags
00003dd: 41                                        ; i32.const
00003de: c808                                      ; i32 literal
00003e0: 0b                                        ; end
00003e1: 2d                                        ; data segment size
; data segment data 3
00003e2: 0200 0000 2600 0000 7e00 6c00 6900 6200 
00003f2: 2f00 6100 7200 7200 6100 7900 6200 7500 
0000402: 6600 6600 6500 7200 2e00 7400 73          ; data segment data
; data segment header 4
000040f: 00                                        ; segment flags
0000410: 41                                        ; i32.const
0000411: fc08                                      ; i32 literal
0000413: 0b                                        ; end
0000414: 01                                        ; data segment size
; data segment data 4
0000415: 3c                                        ; data segment data
; data segment header 5
0000416: 00                                        ; segment flags
0000417: 41                                        ; i32.const
0000418: 8809                                      ; i32 literal
000041a: 0b                                        ; end
000041b: 2f                                        ; data segment size
; data segment data 5
000041c: 0200 0000 2800 0000 4100 6c00 6c00 6f00 
000042c: 6300 6100 7400 6900 6f00 6e00 2000 7400 
000043c: 6f00 6f00 2000 6c00 6100 7200 6700 65     ; data segment data
; data segment header 6
000044b: 00                                        ; segment flags
000044c: 41                                        ; i32.const
000044d: bc09                                      ; i32 literal
000044f: 0b                                        ; end
0000450: 01                                        ; data segment size
; data segment data 6
0000451: 3c                                        ; data segment data
; data segment header 7
0000452: 00                                        ; segment flags
0000453: 41                                        ; i32.const
0000454: c809                                      ; i32 literal
0000456: 0b                                        ; end
0000457: 25                                        ; data segment size
; data segment data 7
0000458: 0200 0000 1e00 0000 7e00 6c00 6900 6200 
0000468: 2f00 7200 7400 2f00 7300 7400 7500 6200 
0000478: 2e00 7400 73                              ; data segment data
; move data: [3a4, 47d) -> [3a5, 47e)
00003a3: d901                                      ; FIXUP section size
; section "name"
000047e: 00                                        ; section code
000047f: 00                                        ; section size (guess)
0000480: 04                                        ; string length
0000481: 6e61 6d65                                name  ; custom section name
0000485: 01                                        ; name subsection type
0000486: 00                                        ; subsection size (guess)
0000487: 0d                                        ; num names
0000488: 00                                        ; elem index
0000489: 13                                        ; string length
000048a: 7e6c 6962 2f62 7569 6c74 696e 732f 6162  ~lib/builtins/ab
000049a: 6f72 74                                  ort  ; elem name 0
000049d: 01                                        ; elem index
000049e: 20                                        ; string length
000049f: 7e6c 6962 2f72 742f 636f 6d6d 6f6e 2f4f  ~lib/rt/common/O
00004af: 424a 4543 5423 7365 743a 6763 496e 666f  BJECT#set:gcInfo  ; elem name 1
00004bf: 02                                        ; elem index
00004c0: 21                                        ; string length
00004c1: 7e6c 6962 2f72 742f 636f 6d6d 6f6e 2f4f  ~lib/rt/common/O
00004d1: 424a 4543 5423 7365 743a 6763 496e 666f  BJECT#set:gcInfo
00004e1: 32                                       2  ; elem name 2
00004e2: 03                                        ; elem index
00004e3: 12                                        ; string length
00004e4: 7e6c 6962 2f72 742f 7374 7562 2f5f 5f6e  ~lib/rt/stub/__n
00004f4: 6577                                     ew  ; elem name 3
00004f6: 04                                        ; elem index
00004f7: 2b                                        ; string length
00004f8: 7e6c 6962 2f61 7272 6179 6275 6666 6572  ~lib/arraybuffer
0000508: 2f41 7272 6179 4275 6666 6572 5669 6577  /ArrayBufferView
0000518: 2373 6574 3a62 7566 6665 72              #set:buffer  ; elem name 4
0000523: 05                                        ; elem index
0000524: 16                                        ; string length
0000525: 6d6f 6475 6c65 2f69 7465 7261 7465 4571  module/iterateEq
0000535: 7561 7469 6f6e                           uation  ; elem name 5
000053b: 06                                        ; elem index
000053c: 0c                                        ; string length
000053d: 6d6f 6475 6c65 2f73 6361 6c65            module/scale  ; elem name 6
0000549: 07                                        ; elem index
000054a: 0d                                        ; string length
000054b: 6d6f 6475 6c65 2f63 6f6c 6f75 72         module/colour  ; elem name 7
0000558: 08                                        ; elem index
0000559: 21                                        ; string length
000055a: 7e6c 6962 2f74 7970 6564 6172 7261 792f  ~lib/typedarray/
000056a: 5569 6e74 3841 7272 6179 235f 5f75 7365  Uint8Array#__use
000057a: 74                                       t  ; elem name 8
000057b: 09                                        ; elem index
000057c: 11                                        ; string length
000057d: 6d6f 6475 6c65 2f6d 616e 6465 6c62 726f  module/mandelbro
000058d: 74                                       t  ; elem name 9
000058e: 0a                                        ; elem index
000058f: 0e                                        ; string length
0000590: 6d6f 6475 6c65 2f67 6574 4461 7461       module/getData  ; elem name 10
000059e: 0b                                        ; elem index
000059f: 14                                        ; string length
00005a0: 6d6f 6475 6c65 2f67 6574 4461 7461 4275  module/getDataBu
00005b0: 6666 6572                                ffer  ; elem name 11
00005b4: 0c                                        ; elem index
00005b5: 06                                        ; string length
00005b6: 7e73 7461 7274                           ~start  ; elem name 12
; move data: [487, 5bc) -> [488, 5bd)
0000486: b502                                      ; FIXUP subsection size
00005bd: 02                                        ; local name type
00005be: 00                                        ; subsection size (guess)
00005bf: 0d                                        ; num functions
00005c0: 00                                        ; function index
00005c1: 00                                        ; num locals
00005c2: 01                                        ; function index
00005c3: 02                                        ; num locals
00005c4: 00                                        ; local index
00005c5: 01                                        ; string length
00005c6: 30                                       0  ; local name 0
00005c7: 01                                        ; local index
00005c8: 01                                        ; string length
00005c9: 31                                       1  ; local name 1
00005ca: 02                                        ; function index
00005cb: 02                                        ; num locals
00005cc: 00                                        ; local index
00005cd: 01                                        ; string length
00005ce: 30                                       0  ; local name 0
00005cf: 01                                        ; local index
00005d0: 01                                        ; string length
00005d1: 31                                       1  ; local name 1
00005d2: 03                                        ; function index
00005d3: 08                                        ; num locals
00005d4: 00                                        ; local index
00005d5: 01                                        ; string length
00005d6: 30                                       0  ; local name 0
00005d7: 01                                        ; local index
00005d8: 01                                        ; string length
00005d9: 31                                       1  ; local name 1
00005da: 02                                        ; local index
00005db: 01                                        ; string length
00005dc: 32                                       2  ; local name 2
00005dd: 03                                        ; local index
00005de: 01                                        ; string length
00005df: 33                                       3  ; local name 3
00005e0: 04                                        ; local index
00005e1: 01                                        ; string length
00005e2: 34                                       4  ; local name 4
00005e3: 05                                        ; local index
00005e4: 01                                        ; string length
00005e5: 35                                       5  ; local name 5
00005e6: 06                                        ; local index
00005e7: 01                                        ; string length
00005e8: 36                                       6  ; local name 6
00005e9: 07                                        ; local index
00005ea: 01                                        ; string length
00005eb: 37                                       7  ; local name 7
00005ec: 04                                        ; function index
00005ed: 02                                        ; num locals
00005ee: 00                                        ; local index
00005ef: 01                                        ; string length
00005f0: 30                                       0  ; local name 0
00005f1: 01                                        ; local index
00005f2: 01                                        ; string length
00005f3: 31                                       1  ; local name 1
00005f4: 05                                        ; function index
00005f5: 07                                        ; num locals
00005f6: 00                                        ; local index
00005f7: 01                                        ; string length
00005f8: 30                                       0  ; local name 0
00005f9: 01                                        ; local index
00005fa: 01                                        ; string length
00005fb: 31                                       1  ; local name 1
00005fc: 02                                        ; local index
00005fd: 01                                        ; string length
00005fe: 32                                       2  ; local name 2
00005ff: 03                                        ; local index
0000600: 01                                        ; string length
0000601: 33                                       3  ; local name 3
0000602: 04                                        ; local index
0000603: 01                                        ; string length
0000604: 34                                       4  ; local name 4
0000605: 05                                        ; local index
0000606: 01                                        ; string length
0000607: 35                                       5  ; local name 5
0000608: 06                                        ; local index
0000609: 01                                        ; string length
000060a: 36                                       6  ; local name 6
000060b: 06                                        ; function index
000060c: 04                                        ; num locals
000060d: 00                                        ; local index
000060e: 01                                        ; string length
000060f: 30                                       0  ; local name 0
0000610: 01                                        ; local index
0000611: 01                                        ; string length
0000612: 31                                       1  ; local name 1
0000613: 02                                        ; local index
0000614: 01                                        ; string length
0000615: 32                                       2  ; local name 2
0000616: 03                                        ; local index
0000617: 01                                        ; string length
0000618: 33                                       3  ; local name 3
0000619: 07                                        ; function index
000061a: 02                                        ; num locals
000061b: 00                                        ; local index
000061c: 01                                        ; string length
000061d: 30                                       0  ; local name 0
000061e: 01                                        ; local index
000061f: 01                                        ; string length
0000620: 31                                       1  ; local name 1
0000621: 08                                        ; function index
0000622: 03                                        ; num locals
0000623: 00                                        ; local index
0000624: 01                                        ; string length
0000625: 30                                       0  ; local name 0
0000626: 01                                        ; local index
0000627: 01                                        ; string length
0000628: 31                                       1  ; local name 1
0000629: 02                                        ; local index
000062a: 01                                        ; string length
000062b: 32                                       2  ; local name 2
000062c: 09                                        ; function index
000062d: 0a                                        ; num locals
000062e: 00                                        ; local index
000062f: 01                                        ; string length
0000630: 30                                       0  ; local name 0
0000631: 01                                        ; local index
0000632: 01                                        ; string length
0000633: 31                                       1  ; local name 1
0000634: 02                                        ; local index
0000635: 01                                        ; string length
0000636: 32                                       2  ; local name 2
0000637: 03                                        ; local index
0000638: 01                                        ; string length
0000639: 33                                       3  ; local name 3
000063a: 04                                        ; local index
000063b: 01                                        ; string length
000063c: 34                                       4  ; local name 4
000063d: 05                                        ; local index
000063e: 01                                        ; string length
000063f: 35                                       5  ; local name 5
0000640: 06                                        ; local index
0000641: 01                                        ; string length
0000642: 36                                       6  ; local name 6
0000643: 07                                        ; local index
0000644: 01                                        ; string length
0000645: 37                                       7  ; local name 7
0000646: 08                                        ; local index
0000647: 01                                        ; string length
0000648: 38                                       8  ; local name 8
0000649: 09                                        ; local index
000064a: 01                                        ; string length
000064b: 39                                       9  ; local name 9
000064c: 0a                                        ; function index
000064d: 00                                        ; num locals
000064e: 0b                                        ; function index
000064f: 00                                        ; num locals
0000650: 0c                                        ; function index
0000651: 02                                        ; num locals
0000652: 00                                        ; local index
0000653: 01                                        ; string length
0000654: 30                                       0  ; local name 0
0000655: 01                                        ; local index
0000656: 01                                        ; string length
0000657: 31                                       1  ; local name 1
; move data: [5bf, 658) -> [5c0, 659)
00005be: 9901                                      ; FIXUP subsection size
0000659: 04                                        ; name subsection type
000065a: 00                                        ; subsection size (guess)
000065b: 09                                        ; num names
000065c: 00                                        ; elem index
000065d: 0f                                        ; string length
000065e: 6933 325f 6933 325f 3d3e 5f6e 6f6e 65    i32_i32_=>_none  ; elem name 0
000066d: 01                                        ; elem index
000066e: 0e                                        ; string length
000066f: 6933 325f 6933 325f 3d3e 5f69 3332       i32_i32_=>_i32  ; elem name 1
000067d: 02                                        ; elem index
000067e: 0b                                        ; string length
000067f: 6e6f 6e65 5f3d 3e5f 6933 32              none_=>_i32  ; elem name 2
000068a: 03                                        ; elem index
000068b: 17                                        ; string length
000068c: 6933 325f 6933 325f 6933 325f 6933 325f  i32_i32_i32_i32_
000069c: 3d3e 5f6e 6f6e 65                        =>_none  ; elem name 3
00006a3: 04                                        ; elem index
00006a4: 12                                        ; string length
00006a5: 6636 345f 6636 345f 6933 325f 3d3e 5f69  f64_f64_i32_=>_i
00006b5: 3332                                     32  ; elem name 4
00006b7: 05                                        ; elem index
00006b8: 16                                        ; string length
00006b9: 6636 345f 6636 345f 6636 345f 6636 345f  f64_f64_f64_f64_
00006c9: 3d3e 5f66 3634                           =>_f64  ; elem name 5
00006cf: 06                                        ; elem index
00006d0: 13                                        ; string length
00006d1: 6933 325f 6933 325f 6933 325f 3d3e 5f6e  i32_i32_i32_=>_n
00006e1: 6f6e 65                                  one  ; elem name 6
00006e4: 07                                        ; elem index
00006e5: 17                                        ; string length
00006e6: 6933 325f 6636 345f 6636 345f 6636 345f  i32_f64_f64_f64_
00006f6: 3d3e 5f6e 6f6e 65                        =>_none  ; elem name 7
00006fd: 08                                        ; elem index
00006fe: 0c                                        ; string length
00006ff: 6e6f 6e65 5f3d 3e5f 6e6f 6e65            none_=>_none  ; elem name 8
; move data: [65b, 70b) -> [65c, 70c)
000065a: b001                                      ; FIXUP subsection size
000070c: 06                                        ; name subsection type
000070d: 00                                        ; subsection size (guess)
000070e: 01                                        ; num names
000070f: 00                                        ; elem index
0000710: 01                                        ; string length
0000711: 30                                       0  ; elem name 0
000070d: 04                                        ; FIXUP subsection size
0000712: 07                                        ; name subsection type
0000713: 00                                        ; subsection size (guess)
0000714: 04                                        ; num names
0000715: 00                                        ; elem index
0000716: 0c                                        ; string length
0000717: 6d6f 6475 6c65 2f77 6964 7468            module/width  ; elem name 0
0000723: 01                                        ; elem index
0000724: 0d                                        ; string length
0000725: 6d6f 6475 6c65 2f68 6569 6768 74         module/height  ; elem name 1
0000732: 02                                        ; elem index
0000733: 13                                        ; string length
0000734: 7e6c 6962 2f72 742f 7374 7562 2f6f 6666  ~lib/rt/stub/off
0000744: 7365 74                                  set  ; elem name 2
0000747: 03                                        ; elem index
0000748: 0b                                        ; string length
0000749: 6d6f 6475 6c65 2f64 6174 61              module/data  ; elem name 3
0000713: 40                                        ; FIXUP subsection size
; move data: [480, 754) -> [481, 755)
000047f: d405                                      ; FIXUP section size