0000000: 0061 736d                                 ; WASM_BINARY_MAGIC
0000004: 0100 0000                                 ; WASM_BINARY_VERSION
; section "Type" (1)
0000008: 01                                        ; section code
0000009: 00                                        ; section size (guess)
000000a: 02                                        ; num types
; func type 0
000000b: 60                                        ; func
000000c: 02                                        ; num params
000000d: 7f                                        ; i32
000000e: 7f                                        ; i32
000000f: 00                                        ; num results
; func type 1
0000010: 60                                        ; func
0000011: 00                                        ; num params
0000012: 00                                        ; num results
0000009: 09                                        ; FIXUP section size
; section "Import" (2)
0000013: 02                                        ; section code
0000014: 00                                        ; section size (guess)
0000015: 02                                        ; num imports
; import header 0
0000016: 07                                        ; string length
0000017: 636f 6e73 6f6c 65                        console  ; import module name
000001e: 03                                        ; string length
000001f: 6c6f 67                                  log  ; import field name
0000022: 00                                        ; import kind
0000023: 00                                        ; import signature index
; import header 1
0000024: 02                                        ; string length
0000025: 6a73                                     js  ; import module name
0000027: 03                                        ; string length
0000028: 6d65 6d                                  mem  ; import field name
000002b: 02                                        ; import kind
000002c: 00                                        ; limits: flags
000002d: 01                                        ; limits: initial
0000014: 19                                        ; FIXUP section size
; section "Function" (3)
000002e: 03                                        ; section code
000002f: 00                                        ; section size (guess)
0000030: 01                                        ; num functions
0000031: 01                                        ; function 0 signature index
000002f: 02                                        ; FIXUP section size
; section "Export" (7)
0000032: 07                                        ; section code
0000033: 00                                        ; section size (guess)
0000034: 01                                        ; num exports
0000035: 07                                        ; string length
0000036: 7772 6974 6548 69                        writeHi  ; export name
000003d: 00                                        ; export kind
000003e: 01                                        ; export func index
0000033: 0b                                        ; FIXUP section size
; section "Start" (8)
000003f: 08                                        ; section code
0000040: 00                                        ; section size (guess)
0000041: 01                                        ; start func index
0000040: 01                                        ; FIXUP section size
; section "DataCount" (12)
0000042: 0c                                        ; section code
0000043: 00                                        ; section size (guess)
0000044: 02                                        ; data count
0000043: 01                                        ; FIXUP section size
; section "Code" (10)
0000045: 0a                                        ; section code
0000046: 00                                        ; section size (guess)
0000047: 01                                        ; num functions
; function body 0
0000048: 00                                        ; func body size (guess)
0000049: 00                                        ; local decl count
000004a: 41                                        ; i32.const
000004b: 00                                        ; i32 literal
000004c: 41                                        ; i32.const
000004d: 10                                        ; i32 literal
000004e: 10                                        ; call
000004f: 00                                        ; function index
0000050: 0b                                        ; end
0000048: 08                                        ; FIXUP func body size
0000046: 0a                                        ; FIXUP section size
; move data: [45, 51) -> [42, 4e)
; truncate to 78 (0x4e)
; section "Data" (11)
000004e: 0b                                        ; section code
000004f: 00                                        ; section size (guess)
0000050: 02                                        ; num data segments
; data segment header 0
0000051: 00                                        ; segment flags
0000052: 41                                        ; i32.const
0000053: 00                                        ; i32 literal
0000054: 0b                                        ; end
0000055: 11                                        ; data segment size
; data segment data 0
0000056: 4865 6c6c 6f20 6672 6f6d 2077 6173 6d21 
0000066: 00                                        ; data segment data
; data segment header 1
0000067: 01                                        ; segment flags
0000068: 0c                                        ; data segment size
; data segment data 1
0000069: 6275 656e 6f73 2064 6961 7300             ; data segment data
000004f: 25                                        ; FIXUP section size
; section "name"
0000075: 00                                        ; section code
0000076: 00                                        ; section size (guess)
0000077: 04                                        ; string length
0000078: 6e61 6d65                                name  ; custom section name
000007c: 01                                        ; name subsection type
000007d: 00                                        ; subsection size (guess)
000007e: 02                                        ; num names
000007f: 00                                        ; elem index
0000080: 03                                        ; string length
0000081: 6c6f 67                                  log  ; elem name 0
0000084: 01                                        ; elem index
0000085: 07                                        ; string length
0000086: 7772 6974 6548 69                        writeHi  ; elem name 1
000007d: 0f                                        ; FIXUP subsection size
000008d: 02                                        ; local name type
000008e: 00                                        ; subsection size (guess)
000008f: 02                                        ; num functions
0000090: 00                                        ; function index
0000091: 00                                        ; num locals
0000092: 01                                        ; function index
0000093: 00                                        ; num locals
000008e: 05                                        ; FIXUP subsection size
0000094: 09                                        ; name subsection type
0000095: 00                                        ; subsection size (guess)
0000096: 02                                        ; num names
0000097: 00                                        ; elem index
0000098: 0b                                        ; string length
0000099: 6865 6c6c 6f53 7472 696e 67              helloString  ; elem name 0
00000a4: 01                                        ; elem index
00000a5: 0b                                        ; string length
00000a6: 6f74 6865 7253 7472 696e 67              otherString  ; elem name 1
0000095: 1b                                        ; FIXUP subsection size
0000076: 3a                                        ; FIXUP section size