0000000: 0061 736d                                 ; WASM_BINARY_MAGIC
0000004: 0100 0000                                 ; WASM_BINARY_VERSION
; section "Type" (1)
0000008: 01                                        ; section code
0000009: 00                                        ; section size (guess)
000000a: 04                                        ; num types
; func type 0
000000b: 60                                        ; func
000000c: 02                                        ; num params
000000d: 7f                                        ; i32
000000e: 7f                                        ; i32
000000f: 01                                        ; num results
0000010: 7f                                        ; i32
; func type 1
0000011: 60                                        ; func
0000012: 02                                        ; num params
0000013: 7f                                        ; i32
0000014: 7f                                        ; i32
0000015: 00                                        ; num results
; func type 2
0000016: 60                                        ; func
0000017: 01                                        ; num params
0000018: 7f                                        ; i32
0000019: 01                                        ; num results
000001a: 7f                                        ; i32
; func type 3
000001b: 60                                        ; func
000001c: 00                                        ; num params
000001d: 00                                        ; num results
0000009: 14                                        ; FIXUP section size
; section "Import" (2)
000001e: 02                                        ; section code
000001f: 00                                        ; section size (guess)
0000020: 03                                        ; num imports
; import header 0
0000021: 04                                        ; string length
0000022: 686f 7374                                host  ; import module name
0000026: 03                                        ; string length
0000027: 6d65 6d                                  mem  ; import field name
000002a: 02                                        ; import kind
000002b: 00                                        ; limits: flags
000002c: 01                                        ; limits: initial
; import header 1
000002d: 04                                        ; string length
000002e: 686f 7374                                host  ; import module name
0000032: 08                                        ; string length
0000033: 6669 6c6c 5f62 7566                      fill_buf  ; import field name
000003b: 00                                        ; import kind
000003c: 00                                        ; import signature index
; import header 2
000003d: 04                                        ; string length
000003e: 686f 7374                                host  ; import module name
0000042: 08                                        ; string length
0000043: 6275 665f 646f 6e65                      buf_done  ; import field name
000004b: 00                                        ; import kind
000004c: 01                                        ; import signature index
000001f: 2d                                        ; FIXUP section size
; section "Function" (3)
000004d: 03                                        ; section code
000004e: 00                                        ; section size (guess)
000004f: 02                                        ; num functions
0000050: 02                                        ; function 0 signature index
0000051: 03                                        ; function 1 signature index
000004e: 03                                        ; FIXUP section size
; section "Export" (7)
0000052: 07                                        ; section code
0000053: 00                                        ; section size (guess)
0000054: 01                                        ; num exports
0000055: 05                                        ; string length
0000056: 726f 7431 33                             rot13  ; export name
000005b: 00                                        ; export kind
000005c: 03                                        ; export func index
0000053: 09                                        ; FIXUP section size
; section "Code" (10)
000005d: 0a                                        ; section code
000005e: 00                                        ; section size (guess)
000005f: 02                                        ; num functions
; function body 0
0000060: 00                                        ; func body size (guess)
0000061: 01                                        ; local decl count
0000062: 01                                        ; local type count
0000063: 7f                                        ; i32
0000064: 20                                        ; local.get
0000065: 00                                        ; local index
0000066: 41                                        ; i32.const
0000067: c100                                      ; i32 literal
0000069: 49                                        ; i32.lt_u
000006a: 04                                        ; if
000006b: 40                                        ; void
000006c: 20                                        ; local.get
000006d: 00                                        ; local index
000006e: 0f                                        ; return
000006f: 0b                                        ; end
0000070: 20                                        ; local.get
0000071: 00                                        ; local index
0000072: 41                                        ; i32.const
0000073: df01                                      ; i32 literal
0000075: 71                                        ; i32.and
0000076: 21                                        ; local.set
0000077: 01                                        ; local index
0000078: 20                                        ; local.get
0000079: 01                                        ; local index
000007a: 41                                        ; i32.const
000007b: cd00                                      ; i32 literal
000007d: 4d                                        ; i32.le_u
000007e: 04                                        ; if
000007f: 40                                        ; void
0000080: 20                                        ; local.get
0000081: 00                                        ; local index
0000082: 41                                        ; i32.const
0000083: 0d                                        ; i32 literal
0000084: 6a                                        ; i32.add
0000085: 0f                                        ; return
0000086: 0b                                        ; end
0000087: 20                                        ; local.get
0000088: 01                                        ; local index
0000089: 41                                        ; i32.const
000008a: da00                                      ; i32 literal
000008c: 4d                                        ; i32.le_u
000008d: 04                                        ; if
000008e: 40                                        ; void
000008f: 20                                        ; local.get
0000090: 00                                        ; local index
0000091: 41                                        ; i32.const
0000092: 0d                                        ; i32 literal
0000093: 6b                                        ; i32.sub
0000094: 0f                                        ; return
0000095: 0b                                        ; end
0000096: 20                                        ; local.get
0000097: 00                                        ; local index
0000098: 0f                                        ; return
0000099: 0b                                        ; end
0000060: 39                                        ; FIXUP func body size
; function body 1
000009a: 00                                        ; func body size (guess)
000009b: 01                                        ; local decl count
000009c: 02                                        ; local type count
000009d: 7f                                        ; i32
000009e: 41                                        ; i32.const
000009f: 00                                        ; i32 literal
00000a0: 41                                        ; i32.const
00000a1: 8008                                      ; i32 literal
00000a3: 10                                        ; call
00000a4: 00                                        ; function index
00000a5: 21                                        ; local.set
00000a6: 00                                        ; local index
00000a7: 02                                        ; block
00000a8: 40                                        ; void
00000a9: 03                                        ; loop
00000aa: 40                                        ; void
00000ab: 20                                        ; local.get
00000ac: 01                                        ; local index
00000ad: 20                                        ; local.get
00000ae: 00                                        ; local index
00000af: 4f                                        ; i32.ge_u
00000b0: 04                                        ; if
00000b1: 40                                        ; void
00000b2: 0c                                        ; br
00000b3: 02                                        ; break depth
00000b4: 0b                                        ; end
00000b5: 20                                        ; local.get
00000b6: 01                                        ; local index
00000b7: 20                                        ; local.get
00000b8: 01                                        ; local index
00000b9: 2d                                        ; i32.load8_u
00000ba: 00                                        ; alignment
00000bb: 00                                        ; load offset
00000bc: 10                                        ; call
00000bd: 02                                        ; function index
00000be: 3a                                        ; i32.store8
00000bf: 00                                        ; alignment
00000c0: 00                                        ; store offset
00000c1: 20                                        ; local.get
00000c2: 01                                        ; local index
00000c3: 41                                        ; i32.const
00000c4: 01                                        ; i32 literal
00000c5: 6a                                        ; i32.add
00000c6: 21                                        ; local.set
00000c7: 01                                        ; local index
00000c8: 0c                                        ; br
00000c9: 00                                        ; break depth
00000ca: 0b                                        ; end
00000cb: 0b                                        ; end
00000cc: 41                                        ; i32.const
00000cd: 00                                        ; i32 literal
00000ce: 20                                        ; local.get
00000cf: 00                                        ; local index
00000d0: 10                                        ; call
00000d1: 01                                        ; function index
00000d2: 0b                                        ; end
000009a: 38                                        ; FIXUP func body size
000005e: 74                                        ; FIXUP section size
; section "name"
00000d3: 00                                        ; section code
00000d4: 00                                        ; section size (guess)
00000d5: 04                                        ; string length
00000d6: 6e61 6d65                                name  ; custom section name
00000da: 01                                        ; name subsection type
00000db: 00                                        ; subsection size (guess)
00000dc: 03                                        ; num names
00000dd: 00                                        ; elem index
00000de: 08                                        ; string length
00000df: 6669 6c6c 5f62 7566                      fill_buf  ; elem name 0
00000e7: 01                                        ; elem index
00000e8: 08                                        ; string length
00000e9: 6275 665f 646f 6e65                      buf_done  ; elem name 1
00000f1: 02                                        ; elem index
00000f2: 06                                        ; string length
00000f3: 726f 7431 3363                           rot13c  ; elem name 2
00000db: 1d                                        ; FIXUP subsection size
00000f9: 02                                        ; local name type
00000fa: 00                                        ; subsection size (guess)
00000fb: 04                                        ; num functions
00000fc: 00                                        ; function index
00000fd: 00                                        ; num locals
00000fe: 01                                        ; function index
00000ff: 00                                        ; num locals
0000100: 02                                        ; function index
0000101: 02                                        ; num locals
0000102: 00                                        ; local index
0000103: 01                                        ; string length
0000104: 63                                       c  ; local name 0
0000105: 01                                        ; local index
0000106: 02                                        ; string length
0000107: 7563                                     uc  ; local name 1
0000109: 03                                        ; function index
000010a: 02                                        ; num locals
000010b: 00                                        ; local index
000010c: 04                                        ; string length
000010d: 7369 7a65                                size  ; local name 0
0000111: 01                                        ; local index
0000112: 01                                        ; string length
0000113: 69                                       i  ; local name 1
00000fa: 19                                        ; FIXUP subsection size
0000114: 06                                        ; name subsection type
0000115: 00                                        ; subsection size (guess)
0000116: 01                                        ; num names
0000117: 00                                        ; elem index
0000118: 03                                        ; string length
0000119: 6d65 6d                                  mem  ; elem name 0
0000115: 06                                        ; FIXUP subsection size
00000d4: 47                                        ; FIXUP section size